; Function Attrs: mustprogress uwtable
define hidden void @_ZN7datalog10table_base12remove_factsEjPKm(ptr noundef nonnull align 8 dereferenceable(36) %0, i32 noundef %1, ptr noundef %2) unnamed_addr #3 align 2 {
  %.not = icmp eq i32 %1, 0
  br i1 %.not, label %._crit_edge, label %.lr.ph

.lr.ph:                                           ; preds = %3
  %4 = getelementptr inbounds nuw i8, ptr %0, i64 16
  br label %5

._crit_edge:                                      ; preds = %_ZNK6vectorImLb0EjE4sizeEv.exit, %3
  ret void

5:                                                ; preds = %.lr.ph, %_ZNK6vectorImLb0EjE4sizeEv.exit
  %.05 = phi i32 [ 0, %.lr.ph ], [ %17, %_ZNK6vectorImLb0EjE4sizeEv.exit ]
  %6 = load ptr, ptr %4, align 8, !tbaa !328
  %7 = icmp eq ptr %6, null
  br i1 %7, label %_ZNK6vectorImLb0EjE4sizeEv.exit, label %8

8:                                                ; preds = %5
  %9 = getelementptr inbounds i8, ptr %6, i64 -4
  %10 = load i32, ptr %9, align 4, !tbaa !12
  br label %_ZNK6vectorImLb0EjE4sizeEv.exit

_ZNK6vectorImLb0EjE4sizeEv.exit:                  ; preds = %5, %8
  %.0.i = phi i32 [ %10, %8 ], [ 0, %5 ]
  %11 = mul i32 %.0.i, %.05
  %12 = zext i32 %11 to i64
  %13 = getelementptr inbounds nuw i64, ptr %2, i64 %12
  %14 = load ptr, ptr %0, align 8, !tbaa !3
  %15 = getelementptr inbounds nuw i8, ptr %14, i64 168
  %16 = load ptr, ptr %15, align 8
  tail call void %16(ptr noundef nonnull align 8 dereferenceable(36) %0, ptr noundef %13)
  %17 = add nuw i32 %.05, 1
  %exitcond.not = icmp eq i32 %17, %1
  br i1 %exitcond.not, label %._crit_edge, label %5, !llvm.loop !363
}